; Function Attrs: mustprogress uwtable
define noundef nonnull ptr @_ZN8nanobind6detail7getattrEP7_objectS2_(ptr noundef %0, ptr noundef %1) local_unnamed_addr #15 {
  %3 = tail call ptr @PyObject_GetAttr(ptr noundef %0, ptr noundef %1)
  %.not = icmp eq ptr %3, null
  br i1 %.not, label %4, label %5

4:                                                ; preds = %2
  tail call void @_ZN8nanobind6detail18raise_python_errorEv() #28
  unreachable

5:                                                ; preds = %2
  ret ptr %3
}